target datalayout = "e-m:e-p270:32:32-p271:32:32-p272:64:64-i64:64-i128:128-f80:128-n8:16:32:64-S128"
target triple = "x86_64-pc-linux-gnu"

%class.EventMarkBase = type { ptr, %class.FormatStringLogMessage }
%class.FormatStringLogMessage = type { %class.FormatBuffer }
%class.FormatBuffer = type { %class.FormatBufferBase, [256 x i8] }
%class.FormatBufferBase = type { ptr }

; Function Attrs: mustprogress nounwind uwtable
define linkonce_odr hidden void @_ZN16FormatBufferBaseC2EPc(ptr noundef nonnull align 8 dereferenceable(8) %0, ptr noundef %1) unnamed_addr #1 comdat align 2 {
  %3 = alloca ptr, align 8
  %4 = alloca ptr, align 8
  store ptr %0, ptr %3, align 8
  store ptr %1, ptr %4, align 8
  %5 = load ptr, ptr %3, align 8
  %6 = getelementptr inbounds %class.FormatBufferBase, ptr %5, i32 0, i32 0
  %7 = load ptr, ptr %4, align 8
  store ptr %7, ptr %6, align 8
  ret void
}

; Function Attrs: mustprogress nounwind uwtable
define linkonce_odr hidden void @_ZN12FormatBufferILm256EEC2Ev(ptr noundef nonnull align 8 dereferenceable(264) %0) unnamed_addr #1 comdat align 2 {
  %2 = alloca ptr, align 8
  store ptr %0, ptr %2, align 8
  %3 = load ptr, ptr %2, align 8
  %4 = getelementptr inbounds %class.FormatBuffer, ptr %3, i32 0, i32 1
  %5 = getelementptr inbounds [256 x i8], ptr %4, i64 0, i64 0
  call void @_ZN16FormatBufferBaseC2EPc(ptr noundef nonnull align 8 dereferenceable(8) %3, ptr noundef %5)
  %6 = getelementptr inbounds %class.FormatBufferBase, ptr %3, i32 0, i32 0
  %7 = load ptr, ptr %6, align 8
  %8 = getelementptr inbounds i8, ptr %7, i64 0
  store i8 0, ptr %8, align 1
  ret void
}

; Function Attrs: mustprogress nounwind uwtable
define linkonce_odr hidden void @_ZN22FormatStringLogMessageILm256EEC2Ev(ptr noundef nonnull align 8 dereferenceable(264) %0) unnamed_addr #1 comdat align 2 {
  %2 = alloca ptr, align 8
  store ptr %0, ptr %2, align 8
  %3 = load ptr, ptr %2, align 8
  call void @_ZN12FormatBufferILm256EEC2Ev(ptr noundef nonnull align 8 dereferenceable(264) %3)
  ret void
}

; Function Attrs: mustprogress nounwind uwtable
define hidden void @_ZN13EventMarkBaseC2EPFvP6ThreadPKczE(ptr noundef nonnull align 8 dereferenceable(272) %0, ptr noundef %1) unnamed_addr #1 align 2 {
  %3 = alloca ptr, align 8
  %4 = alloca ptr, align 8
  store ptr %0, ptr %3, align 8
  store ptr %1, ptr %4, align 8
  %5 = load ptr, ptr %3, align 8
  %6 = getelementptr inbounds %class.EventMarkBase, ptr %5, i32 0, i32 0
  %7 = load ptr, ptr %4, align 8
  store ptr %7, ptr %6, align 8
  %8 = getelementptr inbounds %class.EventMarkBase, ptr %5, i32 0, i32 1
  call void @llvm.memset.p0.i64(ptr align 8 %8, i8 0, i64 264, i1 false)
  call void @_ZN22FormatStringLogMessageILm256EEC2Ev(ptr noundef nonnull align 8 dereferenceable(264) %8)
  ret void
}