; Function Attrs: mustprogress nofree norecurse nosync nounwind willreturn memory(argmem: write) uwtable
define hidden void @_ZN13EventMarkBaseC2EPFvP6ThreadPKczE(ptr noundef nonnull align 8 dereferenceable(272) %0, ptr noundef %1) unnamed_addr #3 align 2 {
  store ptr %1, ptr %0, align 8
  %3 = getelementptr inbounds i8, ptr %0, i64 8
  %4 = getelementptr inbounds i8, ptr %0, i64 16
  tail call void @llvm.memset.p0.i64(ptr noundef nonnull align 8 dereferenceable(264) %4, i8 0, i64 256, i1 false)
  %5 = getelementptr inbounds i8, ptr %0, i64 16
  store ptr %5, ptr %3, align 8
  ret void
}